target datalayout = "e-m:e-p270:32:32-p271:32:32-p272:64:64-i64:64-i128:128-f80:128-n8:16:32:64-S128"
target triple = "x86_64-pc-linux-gnu"

%union.pthread_mutex_t = type { %struct.__pthread_mutex_s }
%struct.__pthread_mutex_s = type { i32, i32, i32, i32, i32, i16, i16, %struct.__pthread_internal_list }
%struct.__pthread_internal_list = type { ptr, ptr }
%struct.grep_source = type { ptr, i32, ptr, ptr, ptr, i64, ptr, ptr }
%struct.userdiff_driver = type { ptr, %struct.external_diff, ptr, ptr, i32, %struct.userdiff_funcname, ptr, ptr, ptr, ptr, ptr, ptr, i32 }
%struct.external_diff = type { ptr, i8 }
%struct.userdiff_funcname = type { ptr, ptr, i32 }

@.str.13 = private unnamed_addr constant [8 x i8] c"default\00", align 1
@grep_use_locks = dso_local global i32 0, align 4
@grep_attr_mutex = dso_local global %union.pthread_mutex_t zeroinitializer, align 8

; Function Attrs: inlinehint nounwind uwtable
define internal void @grep_attr_unlock() #2 {
  %1 = load i32, ptr @grep_use_locks, align 4, !tbaa !33
  %2 = icmp ne i32 %1, 0
  br i1 %2, label %3, label %5

3:                                                ; preds = %0
  %4 = call i32 @pthread_mutex_unlock(ptr noundef @grep_attr_mutex) #11
  br label %5

5:                                                ; preds = %3, %0
  ret void
}

; Function Attrs: inlinehint nounwind uwtable
define internal void @grep_attr_lock() #2 {
  %1 = load i32, ptr @grep_use_locks, align 4, !tbaa !33
  %2 = icmp ne i32 %1, 0
  br i1 %2, label %3, label %5

3:                                                ; preds = %0
  %4 = call i32 @pthread_mutex_lock(ptr noundef @grep_attr_mutex) #11
  br label %5

5:                                                ; preds = %3, %0
  ret void
}

; Function Attrs: nounwind uwtable
define dso_local void @grep_source_load_driver(ptr noundef %0, ptr noundef %1) #0 {
  %3 = alloca ptr, align 8
  %4 = alloca ptr, align 8
  store ptr %0, ptr %3, align 8, !tbaa !85
  store ptr %1, ptr %4, align 8, !tbaa !140
  %5 = load ptr, ptr %3, align 8, !tbaa !85
  %6 = getelementptr inbounds nuw %struct.grep_source, ptr %5, i32 0, i32 7
  %7 = load ptr, ptr %6, align 8, !tbaa !119
  %8 = icmp ne ptr %7, null
  br i1 %8, label %9, label %10

9:                                                ; preds = %2
  br label %33

10:                                               ; preds = %2
  call void @grep_attr_lock()
  %11 = load ptr, ptr %3, align 8, !tbaa !85
  %12 = getelementptr inbounds nuw %struct.grep_source, ptr %11, i32 0, i32 6
  %13 = load ptr, ptr %12, align 8, !tbaa !135
  %14 = icmp ne ptr %13, null
  br i1 %14, label %15, label %23

15:                                               ; preds = %10
  %16 = load ptr, ptr %4, align 8, !tbaa !140
  %17 = load ptr, ptr %3, align 8, !tbaa !85
  %18 = getelementptr inbounds nuw %struct.grep_source, ptr %17, i32 0, i32 6
  %19 = load ptr, ptr %18, align 8, !tbaa !135
  %20 = call ptr @userdiff_find_by_path(ptr noundef %16, ptr noundef %19)
  %21 = load ptr, ptr %3, align 8, !tbaa !85
  %22 = getelementptr inbounds nuw %struct.grep_source, ptr %21, i32 0, i32 7
  store ptr %20, ptr %22, align 8, !tbaa !119
  br label %23

23:                                               ; preds = %15, %10
  %24 = load ptr, ptr %3, align 8, !tbaa !85
  %25 = getelementptr inbounds nuw %struct.grep_source, ptr %24, i32 0, i32 7
  %26 = load ptr, ptr %25, align 8, !tbaa !119
  %27 = icmp ne ptr %26, null
  br i1 %27, label %32, label %28

28:                                               ; preds = %23
  %29 = call ptr @userdiff_find_by_name(ptr noundef @.str.13)
  %30 = load ptr, ptr %3, align 8, !tbaa !85
  %31 = getelementptr inbounds nuw %struct.grep_source, ptr %30, i32 0, i32 7
  store ptr %29, ptr %31, align 8, !tbaa !119
  br label %32

32:                                               ; preds = %28, %23
  call void @grep_attr_unlock()
  br label %33

33:                                               ; preds = %32, %9
  ret void
}

; Function Attrs: nounwind uwtable
define internal i32 @grep_source_is_binary(ptr noundef %0, ptr noundef %1) #0 {
  %3 = alloca i32, align 4
  %4 = alloca ptr, align 8
  %5 = alloca ptr, align 8
  store ptr %0, ptr %4, align 8, !tbaa !85
  store ptr %1, ptr %5, align 8, !tbaa !140
  %6 = load ptr, ptr %4, align 8, !tbaa !85
  %7 = load ptr, ptr %5, align 8, !tbaa !140
  call void @grep_source_load_driver(ptr noundef %6, ptr noundef %7)
  %8 = load ptr, ptr %4, align 8, !tbaa !85
  %9 = getelementptr inbounds nuw %struct.grep_source, ptr %8, i32 0, i32 7
  %10 = load ptr, ptr %9, align 8, !tbaa !119
  %11 = getelementptr inbounds nuw %struct.userdiff_driver, ptr %10, i32 0, i32 4
  %12 = load i32, ptr %11, align 8, !tbaa !147
  %13 = icmp ne i32 %12, -1
  br i1 %13, label %14, label %20

14:                                               ; preds = %2
  %15 = load ptr, ptr %4, align 8, !tbaa !85
  %16 = getelementptr inbounds nuw %struct.grep_source, ptr %15, i32 0, i32 7
  %17 = load ptr, ptr %16, align 8, !tbaa !119
  %18 = getelementptr inbounds nuw %struct.userdiff_driver, ptr %17, i32 0, i32 4
  %19 = load i32, ptr %18, align 8, !tbaa !147
  store i32 %19, ptr %3, align 4
  br label %33

20:                                               ; preds = %2
  %21 = load ptr, ptr %4, align 8, !tbaa !85
  %22 = call i32 @grep_source_load(ptr noundef %21)
  %23 = icmp ne i32 %22, 0
  br i1 %23, label %32, label %24

24:                                               ; preds = %20
  %25 = load ptr, ptr %4, align 8, !tbaa !85
  %26 = getelementptr inbounds nuw %struct.grep_source, ptr %25, i32 0, i32 4
  %27 = load ptr, ptr %26, align 8, !tbaa !122
  %28 = load ptr, ptr %4, align 8, !tbaa !85
  %29 = getelementptr inbounds nuw %struct.grep_source, ptr %28, i32 0, i32 5
  %30 = load i64, ptr %29, align 8, !tbaa !123
  %31 = call i32 @buffer_is_binary(ptr noundef %27, i64 noundef %30)
  store i32 %31, ptr %3, align 4
  br label %33

32:                                               ; preds = %20
  store i32 0, ptr %3, align 4
  br label %33

33:                                               ; preds = %32, %24, %14
  %34 = load i32, ptr %3, align 4
  ret i32 %34
}