; Function Attrs: nounwind uwtable
define internal fastcc i32 @grep_source_is_binary(ptr noundef %0, ptr noundef %1) unnamed_addr #0 {
  %3 = getelementptr inbounds nuw i8, ptr %0, i64 56
  %4 = load ptr, ptr %3, align 8, !tbaa !106
  %.not.i = icmp eq ptr %4, null
  br i1 %.not.i, label %5, label %grep_source_load_driver.exit

5:                                                ; preds = %2
  %6 = load i32, ptr @grep_use_locks, align 4, !tbaa !49
  %.not.i.i = icmp eq i32 %6, 0
  br i1 %.not.i.i, label %grep_attr_lock.exit.i, label %7

7:                                                ; preds = %5
  %8 = tail call i32 @pthread_mutex_lock(ptr noundef nonnull @grep_attr_mutex) #18
  br label %grep_attr_lock.exit.i

grep_attr_lock.exit.i:                            ; preds = %7, %5
  %9 = getelementptr inbounds nuw i8, ptr %0, i64 48
  %10 = load ptr, ptr %9, align 8, !tbaa !107
  %.not7.i = icmp eq ptr %10, null
  br i1 %.not7.i, label %thread-pre-split.i, label %11

11:                                               ; preds = %grep_attr_lock.exit.i
  %12 = tail call ptr @userdiff_find_by_path(ptr noundef %1, ptr noundef nonnull %10) #18
  store ptr %12, ptr %3, align 8, !tbaa !106
  br label %13

thread-pre-split.i:                               ; preds = %grep_attr_lock.exit.i
  %.pr.i = load ptr, ptr %3, align 8, !tbaa !106
  br label %13

13:                                               ; preds = %thread-pre-split.i, %11
  %14 = phi ptr [ %.pr.i, %thread-pre-split.i ], [ %12, %11 ]
  %.not8.i = icmp eq ptr %14, null
  br i1 %.not8.i, label %15, label %17

15:                                               ; preds = %13
  %16 = tail call ptr @userdiff_find_by_name(ptr noundef nonnull @.str.13) #18
  store ptr %16, ptr %3, align 8, !tbaa !106
  br label %17

17:                                               ; preds = %15, %13
  %18 = phi ptr [ %16, %15 ], [ %14, %13 ]
  %19 = load i32, ptr @grep_use_locks, align 4, !tbaa !49
  %.not.i9.i = icmp eq i32 %19, 0
  br i1 %.not.i9.i, label %grep_source_load_driver.exit, label %20

20:                                               ; preds = %17
  %21 = tail call i32 @pthread_mutex_unlock(ptr noundef nonnull @grep_attr_mutex) #18
  %.pre = load ptr, ptr %3, align 8, !tbaa !106
  br label %grep_source_load_driver.exit

grep_source_load_driver.exit:                     ; preds = %2, %17, %20
  %22 = phi ptr [ %4, %2 ], [ %18, %17 ], [ %.pre, %20 ]
  %23 = getelementptr inbounds nuw i8, ptr %22, i64 40
  %24 = load i32, ptr %23, align 8, !tbaa !144
  %.not = icmp eq i32 %24, -1
  br i1 %.not, label %25, label %33

25:                                               ; preds = %grep_source_load_driver.exit
  %26 = tail call fastcc i32 @grep_source_load(ptr noundef nonnull %0)
  %.not8 = icmp eq i32 %26, 0
  br i1 %.not8, label %27, label %33

27:                                               ; preds = %25
  %28 = getelementptr inbounds nuw i8, ptr %0, i64 32
  %29 = load ptr, ptr %28, align 8, !tbaa !119
  %30 = getelementptr inbounds nuw i8, ptr %0, i64 40
  %31 = load i64, ptr %30, align 8, !tbaa !120
  %32 = tail call i32 @buffer_is_binary(ptr noundef %29, i64 noundef %31) #18
  br label %33

33:                                               ; preds = %25, %grep_source_load_driver.exit, %27
  %.0 = phi i32 [ %32, %27 ], [ %24, %grep_source_load_driver.exit ], [ 0, %25 ]
  ret i32 %.0
}